target datalayout = "e-m:e-p270:32:32-p271:32:32-p272:64:64-i64:64-i128:128-f80:128-n8:16:32:64-S128"
target triple = "x86_64-pc-linux-gnu"

%struct._zend_executor_globals = type { %struct._zval_struct, %struct._zval_struct, [32 x ptr], ptr, ptr, %struct._zend_array, %struct._zend_array, ptr, i32, i32, ptr, ptr, ptr, ptr, ptr, ptr, i64, ptr, ptr, i32, i32, i64, i32, i32, i32, i8, i8, %struct.zend_atomic_bool_s, %struct.zend_atomic_bool_s, ptr, i64, ptr, ptr, %struct._zend_array, %struct._zend_array, i32, i8, %struct._zval_struct, %struct._zval_struct, %struct._zend_stack, %struct._zend_stack, %struct._zend_stack, ptr, i32, i32, i64, ptr, ptr, ptr, %struct._zend_objects_store, ptr, ptr, ptr, [3 x %struct._zend_op], ptr, i8, i8, i64, i32, i32, ptr, [16 x %struct._HashTableIterator], ptr, %union._zend_function, %struct._zend_op, %struct._zend_array, i64, %struct.zend_get_gc_buffer, ptr, ptr, ptr, i64, i8, i32, ptr, ptr, i64, %struct._zend_call_stack, i64, i64, [6 x ptr] }
%struct.zend_atomic_bool_s = type { i8 }
%struct._zval_struct = type { %union._zend_value, %union.anon, %union.anon.2 }
%union._zend_value = type { i64 }
%union.anon = type { i32 }
%union.anon.2 = type { i32 }
%struct._zend_stack = type { i32, i32, i32, ptr }
%struct._zend_objects_store = type { ptr, i32, i32, i32 }
%struct._HashTableIterator = type { ptr, i32, i32 }
%union._zend_function = type { %struct._zend_op_array }
%struct._zend_op_array = type { i8, [3 x i8], i32, ptr, ptr, ptr, i32, i32, ptr, ptr, ptr, ptr, i32, i32, i32, i32, ptr, ptr, ptr, ptr, ptr, i32, i32, ptr, ptr, ptr, i32, i32, i32, i32, ptr, ptr, [6 x ptr] }
%struct._zend_op = type { ptr, %union._znode_op, %union._znode_op, %union._znode_op, i32, i32, i8, i8, i8, i8 }
%union._znode_op = type { i32 }
%struct._zend_array = type { %struct._zend_refcounted_h, %union.anon.4, i32, %union.anon.6, i32, i32, i32, i32, i64, ptr }
%struct._zend_refcounted_h = type { i32, %union.anon.3 }
%union.anon.3 = type { i32 }
%union.anon.4 = type { i32 }
%union.anon.6 = type { ptr }
%struct.zend_get_gc_buffer = type { ptr, ptr, ptr }
%struct._zend_call_stack = type { ptr, i64 }
%struct._zend_execute_data = type { ptr, ptr, ptr, ptr, %struct._zval_struct, ptr, ptr, ptr, ptr }
%struct._xmlNode = type { ptr, i32, ptr, ptr, ptr, ptr, ptr, ptr, ptr, ptr, ptr, ptr, ptr, ptr, i16, i16 }
%struct._zend_string = type { %struct._zend_refcounted_h, i64, i64, [1 x i8] }
%struct._dom_object = type { ptr, ptr, ptr, %struct._zend_object }
%struct._zend_object = type { %struct._zend_refcounted_h, i32, ptr, ptr, ptr, [1 x %struct._zval_struct] }
%struct._zend_class_entry = type { i8, ptr, %union.anon.8, i32, i32, i32, i32, ptr, ptr, ptr, %struct._zend_array, %struct._zend_array, %struct._zend_array, ptr, ptr, ptr, ptr, ptr, ptr, ptr, ptr, ptr, ptr, ptr, ptr, ptr, ptr, ptr, ptr, ptr, ptr, ptr, %union.anon.9, ptr, ptr, ptr, ptr, i32, i32, %union.anon.10, ptr, ptr, ptr, ptr, i32, ptr, ptr, %union.anon.11 }
%union.anon.8 = type { ptr }
%union.anon.9 = type { ptr }
%union.anon.10 = type { ptr }
%union.anon.11 = type { %struct.anon.12 }
%struct.anon.12 = type { ptr, i32, i32 }
%struct._php_libxml_node_ptr = type { ptr, i32, ptr }

@executor_globals = external global %struct._zend_executor_globals, align 8
@.str.5 = private unnamed_addr constant [18 x i8] c"Couldn't fetch %s\00", align 1
@.str.6 = private unnamed_addr constant [6 x i8] c"xmlns\00", align 1
@.str.7 = private unnamed_addr constant [3 x i8] c"ss\00", align 1
@.str.8 = private unnamed_addr constant [16 x i8] c"cannot be empty\00", align 1
@.str.9 = private unnamed_addr constant [30 x i8] c"must be a valid XML attribute\00", align 1

; Function Attrs: nounwind uwtable
define internal ptr @dom_create_attribute(ptr noundef %0, ptr noundef %1, ptr noundef %2) #0 {
  %4 = alloca ptr, align 8
  %5 = alloca ptr, align 8
  %6 = alloca ptr, align 8
  %7 = alloca ptr, align 8
  store ptr %0, ptr %5, align 8
  store ptr %1, ptr %6, align 8
  store ptr %2, ptr %7, align 8
  %8 = load ptr, ptr %6, align 8
  %9 = call i32 @xmlStrEqual(ptr noundef %8, ptr noundef @.str.6)
  %10 = icmp ne i32 %9, 0
  br i1 %10, label %11, label %15

11:                                               ; preds = %3
  %12 = load ptr, ptr %5, align 8
  %13 = load ptr, ptr %7, align 8
  %14 = call ptr @xmlNewNs(ptr noundef %12, ptr noundef %13, ptr noundef null)
  store ptr %14, ptr %4, align 8
  br label %20

15:                                               ; preds = %3
  %16 = load ptr, ptr %5, align 8
  %17 = load ptr, ptr %6, align 8
  %18 = load ptr, ptr %7, align 8
  %19 = call ptr @xmlSetProp(ptr noundef %16, ptr noundef %17, ptr noundef %18)
  store ptr %19, ptr %4, align 8
  br label %20

20:                                               ; preds = %15, %11
  %21 = load ptr, ptr %4, align 8
  ret ptr %21
}

; Function Attrs: nounwind uwtable
define internal ptr @php_dom_obj_from_obj(ptr noundef %0) #0 {
  %2 = alloca ptr, align 8
  store ptr %0, ptr %2, align 8
  %3 = load ptr, ptr %2, align 8
  %4 = getelementptr inbounds i8, ptr %3, i64 -24
  ret ptr %4
}

; Function Attrs: nounwind uwtable
define hidden void @zim_DOMElement_setAttribute(ptr noundef %0, ptr noundef %1) #0 {
  %3 = alloca ptr, align 8
  %4 = alloca ptr, align 8
  %5 = alloca ptr, align 8
  %6 = alloca ptr, align 8
  %7 = alloca ptr, align 8
  %8 = alloca i32, align 4
  %9 = alloca i32, align 4
  %10 = alloca i64, align 8
  %11 = alloca i64, align 8
  %12 = alloca ptr, align 8
  %13 = alloca ptr, align 8
  %14 = alloca ptr, align 8
  store ptr %0, ptr %3, align 8
  store ptr %1, ptr %4, align 8
  store ptr null, ptr %7, align 8
  %15 = load ptr, ptr %3, align 8
  %16 = getelementptr inbounds %struct._zend_execute_data, ptr %15, i32 0, i32 4
  store ptr %16, ptr %5, align 8
  %17 = load ptr, ptr %3, align 8
  %18 = getelementptr inbounds %struct._zend_execute_data, ptr %17, i32 0, i32 4
  %19 = getelementptr inbounds %struct._zval_struct, ptr %18, i32 0, i32 2
  %20 = load i32, ptr %19, align 4
  %21 = call i32 (i32, ptr, ...) @zend_parse_parameters(i32 noundef %20, ptr noundef @.str.7, ptr noundef %13, ptr noundef %10, ptr noundef %14, ptr noundef %11)
  %22 = icmp eq i32 %21, -1
  br i1 %22, label %23, label %28

23:                                               ; preds = %2
  br label %24

24:                                               ; preds = %23
  %25 = load ptr, ptr getelementptr inbounds (%struct._zend_executor_globals, ptr @executor_globals, i32 0, i32 50), align 8
  %26 = icmp ne ptr %25, null
  call void @llvm.assume(i1 %26)
  br label %131

27:                                               ; No predecessors!
  br label %28

28:                                               ; preds = %27, %2
  %29 = load i64, ptr %10, align 8
  %30 = icmp eq i64 %29, 0
  br i1 %30, label %31, label %36

31:                                               ; preds = %28
  call void (i32, ptr, ...) @zend_argument_value_error(i32 noundef 1, ptr noundef @.str.8)
  br label %32

32:                                               ; preds = %31
  %33 = load ptr, ptr getelementptr inbounds (%struct._zend_executor_globals, ptr @executor_globals, i32 0, i32 50), align 8
  %34 = icmp ne ptr %33, null
  call void @llvm.assume(i1 %34)
  br label %131

35:                                               ; No predecessors!
  br label %36

36:                                               ; preds = %35, %28
  %37 = load ptr, ptr %13, align 8
  %38 = call i32 @xmlValidateName(ptr noundef %37, i32 noundef 0)
  store i32 %38, ptr %9, align 4
  %39 = load i32, ptr %9, align 4
  %40 = icmp ne i32 %39, 0
  br i1 %40, label %41, label %46

41:                                               ; preds = %36
  call void @php_dom_throw_error(i32 noundef 5, i32 noundef 1)
  br label %42

42:                                               ; preds = %41
  %43 = load ptr, ptr getelementptr inbounds (%struct._zend_executor_globals, ptr @executor_globals, i32 0, i32 50), align 8
  %44 = icmp ne ptr %43, null
  call void @llvm.assume(i1 %44)
  br label %131

45:                                               ; No predecessors!
  br label %46

46:                                               ; preds = %45, %36
  %47 = load ptr, ptr %5, align 8
  %48 = getelementptr inbounds %struct._zval_struct, ptr %47, i32 0, i32 0
  %49 = load ptr, ptr %48, align 8
  %50 = call ptr @php_dom_obj_from_obj(ptr noundef %49)
  store ptr %50, ptr %12, align 8
  %51 = load ptr, ptr %12, align 8
  %52 = getelementptr inbounds %struct._dom_object, ptr %51, i32 0, i32 0
  %53 = load ptr, ptr %52, align 8
  %54 = icmp eq ptr %53, null
  %55 = xor i1 %54, true
  %56 = xor i1 %55, true
  %57 = zext i1 %56 to i32
  %58 = sext i32 %57 to i64
  %59 = icmp ne i64 %58, 0
  br i1 %59, label %60, label %73

60:                                               ; preds = %46
  %61 = load ptr, ptr %12, align 8
  %62 = getelementptr inbounds %struct._dom_object, ptr %61, i32 0, i32 3
  %63 = getelementptr inbounds %struct._zend_object, ptr %62, i32 0, i32 2
  %64 = load ptr, ptr %63, align 8
  %65 = getelementptr inbounds %struct._zend_class_entry, ptr %64, i32 0, i32 1
  %66 = load ptr, ptr %65, align 8
  %67 = getelementptr inbounds %struct._zend_string, ptr %66, i32 0, i32 3
  %68 = getelementptr inbounds [1 x i8], ptr %67, i64 0, i64 0
  call void (ptr, ptr, ...) @zend_throw_error(ptr noundef null, ptr noundef @.str.5, ptr noundef %68)
  br label %69

69:                                               ; preds = %60
  %70 = load ptr, ptr getelementptr inbounds (%struct._zend_executor_globals, ptr @executor_globals, i32 0, i32 50), align 8
  %71 = icmp ne ptr %70, null
  call void @llvm.assume(i1 %71)
  br label %131

72:                                               ; No predecessors!
  br label %73

73:                                               ; preds = %72, %46
  %74 = load ptr, ptr %12, align 8
  %75 = getelementptr inbounds %struct._dom_object, ptr %74, i32 0, i32 0
  %76 = load ptr, ptr %75, align 8
  %77 = getelementptr inbounds %struct._php_libxml_node_ptr, ptr %76, i32 0, i32 0
  %78 = load ptr, ptr %77, align 8
  store ptr %78, ptr %6, align 8
  %79 = load ptr, ptr %6, align 8
  %80 = load ptr, ptr %13, align 8
  %81 = call ptr @dom_get_dom1_attribute(ptr noundef %79, ptr noundef %80)
  store ptr %81, ptr %7, align 8
  %82 = load ptr, ptr %7, align 8
  %83 = icmp ne ptr %82, null
  br i1 %83, label %84, label %101

84:                                               ; preds = %73
  %85 = load ptr, ptr %7, align 8
  %86 = getelementptr inbounds %struct._xmlNode, ptr %85, i32 0, i32 1
  %87 = load i32, ptr %86, align 8
  switch i32 %87, label %99 [
    i32 2, label %88
    i32 18, label %92
  ]

88:                                               ; preds = %84
  %89 = load ptr, ptr %7, align 8
  %90 = getelementptr inbounds %struct._xmlNode, ptr %89, i32 0, i32 3
  %91 = load ptr, ptr %90, align 8
  call void @node_list_unlink(ptr noundef %91)
  br label %100

92:                                               ; preds = %84
  br label %93

93:                                               ; preds = %92
  br label %94

94:                                               ; preds = %93
  %95 = load ptr, ptr %4, align 8
  %96 = getelementptr inbounds %struct._zval_struct, ptr %95, i32 0, i32 1
  store i32 2, ptr %96, align 8
  br label %97

97:                                               ; preds = %94
  br label %131

98:                                               ; No predecessors!
  br label %99

99:                                               ; preds = %98, %84
  br label %100

100:                                              ; preds = %99, %88
  br label %101

101:                                              ; preds = %100, %73
  %102 = load ptr, ptr %6, align 8
  %103 = load ptr, ptr %13, align 8
  %104 = load ptr, ptr %14, align 8
  %105 = call ptr @dom_create_attribute(ptr noundef %102, ptr noundef %103, ptr noundef %104)
  store ptr %105, ptr %7, align 8
  %106 = load ptr, ptr %7, align 8
  %107 = icmp ne ptr %106, null
  br i1 %107, label %113, label %108

108:                                              ; preds = %101
  call void (i32, ptr, ...) @zend_argument_value_error(i32 noundef 1, ptr noundef @.str.9)
  br label %109

109:                                              ; preds = %108
  %110 = load ptr, ptr getelementptr inbounds (%struct._zend_executor_globals, ptr @executor_globals, i32 0, i32 50), align 8
  %111 = icmp ne ptr %110, null
  call void @llvm.assume(i1 %111)
  br label %131

112:                                              ; No predecessors!
  br label %113

113:                                              ; preds = %112, %101
  %114 = load ptr, ptr %7, align 8
  %115 = getelementptr inbounds %struct._xmlNode, ptr %114, i32 0, i32 1
  %116 = load i32, ptr %115, align 8
  %117 = icmp eq i32 %116, 18
  br i1 %117, label %118, label %125

118:                                              ; preds = %113
  br label %119

119:                                              ; preds = %118
  br label %120

120:                                              ; preds = %119
  %121 = load ptr, ptr %4, align 8
  %122 = getelementptr inbounds %struct._zval_struct, ptr %121, i32 0, i32 1
  store i32 3, ptr %122, align 8
  br label %123

123:                                              ; preds = %120
  br label %131

124:                                              ; No predecessors!
  br label %125

125:                                              ; preds = %124, %113
  %126 = load ptr, ptr %7, align 8
  %127 = load ptr, ptr %4, align 8
  %128 = load ptr, ptr %12, align 8
  %129 = call zeroext i1 @php_dom_create_object(ptr noundef %126, ptr noundef %127, ptr noundef %128)
  %130 = zext i1 %129 to i32
  store i32 %130, ptr %8, align 4
  br label %131

131:                                              ; preds = %125, %123, %109, %97, %69, %42, %32, %24
  ret void
}