; Function Attrs: nounwind uwtable
define hidden void @zim_DOMElement_setAttribute(ptr nocapture noundef readonly %0, ptr noundef %1) local_unnamed_addr #0 {
  %3 = alloca i64, align 8
  %4 = alloca i64, align 8
  %5 = alloca ptr, align 8
  %6 = alloca ptr, align 8
  %7 = getelementptr inbounds i8, ptr %0, i64 32
  %8 = getelementptr inbounds i8, ptr %0, i64 44
  %9 = load i32, ptr %8, align 4
  %10 = call i32 (i32, ptr, ...) @zend_parse_parameters(i32 noundef %9, ptr noundef nonnull @.str.7, ptr noundef nonnull %5, ptr noundef nonnull %3, ptr noundef nonnull %6, ptr noundef nonnull %4) #8
  %11 = icmp eq i32 %10, -1
  br i1 %11, label %12, label %15

12:                                               ; preds = %2
  %13 = load ptr, ptr getelementptr inbounds (%struct._zend_executor_globals, ptr @executor_globals, i64 0, i32 50), align 8
  %14 = icmp ne ptr %13, null
  call void @llvm.assume(i1 %14)
  br label %71

15:                                               ; preds = %2
  %16 = load i64, ptr %3, align 8
  %17 = icmp eq i64 %16, 0
  br i1 %17, label %18, label %21

18:                                               ; preds = %15
  call void (i32, ptr, ...) @zend_argument_value_error(i32 noundef 1, ptr noundef nonnull @.str.8) #8
  %19 = load ptr, ptr getelementptr inbounds (%struct._zend_executor_globals, ptr @executor_globals, i64 0, i32 50), align 8
  %20 = icmp ne ptr %19, null
  call void @llvm.assume(i1 %20)
  br label %71

21:                                               ; preds = %15
  %22 = load ptr, ptr %5, align 8
  %23 = call i32 @xmlValidateName(ptr noundef %22, i32 noundef 0) #8
  %.not = icmp eq i32 %23, 0
  br i1 %.not, label %27, label %24

24:                                               ; preds = %21
  call void @php_dom_throw_error(i32 noundef 5, i32 noundef 1) #8
  %25 = load ptr, ptr getelementptr inbounds (%struct._zend_executor_globals, ptr @executor_globals, i64 0, i32 50), align 8
  %26 = icmp ne ptr %25, null
  call void @llvm.assume(i1 %26)
  br label %71

27:                                               ; preds = %21
  %28 = load ptr, ptr %7, align 8
  %29 = getelementptr inbounds i8, ptr %28, i64 -24
  %30 = load ptr, ptr %29, align 8
  %31 = icmp eq ptr %30, null
  br i1 %31, label %32, label %40

32:                                               ; preds = %27
  %33 = getelementptr inbounds i8, ptr %28, i64 16
  %34 = load ptr, ptr %33, align 8
  %35 = getelementptr inbounds i8, ptr %34, i64 8
  %36 = load ptr, ptr %35, align 8
  %37 = getelementptr inbounds i8, ptr %36, i64 24
  call void (ptr, ptr, ...) @zend_throw_error(ptr noundef null, ptr noundef nonnull @.str.5, ptr noundef nonnull %37) #8
  %38 = load ptr, ptr getelementptr inbounds (%struct._zend_executor_globals, ptr @executor_globals, i64 0, i32 50), align 8
  %39 = icmp ne ptr %38, null
  call void @llvm.assume(i1 %39)
  br label %71

40:                                               ; preds = %27
  %41 = load ptr, ptr %30, align 8
  %42 = load ptr, ptr %5, align 8
  %43 = call fastcc ptr @dom_get_dom1_attribute(ptr noundef %41, ptr noundef %42)
  %.not20 = icmp eq ptr %43, null
  br i1 %.not20, label %52, label %44

44:                                               ; preds = %40
  %45 = getelementptr inbounds i8, ptr %43, i64 8
  %46 = load i32, ptr %45, align 8
  switch i32 %46, label %52 [
    i32 2, label %47
    i32 18, label %50
  ]

47:                                               ; preds = %44
  %48 = getelementptr inbounds i8, ptr %43, i64 24
  %49 = load ptr, ptr %48, align 8
  call void @node_list_unlink(ptr noundef %49) #8
  br label %52

50:                                               ; preds = %44
  %51 = getelementptr inbounds i8, ptr %1, i64 8
  store i32 2, ptr %51, align 8
  br label %71

52:                                               ; preds = %47, %44, %40
  %53 = load ptr, ptr %5, align 8
  %54 = load ptr, ptr %6, align 8
  %55 = call i32 @xmlStrEqual(ptr noundef %53, ptr noundef nonnull @.str.6) #8
  %.not.i = icmp eq i32 %55, 0
  br i1 %.not.i, label %58, label %56

56:                                               ; preds = %52
  %57 = call ptr @xmlNewNs(ptr noundef %41, ptr noundef %54, ptr noundef null) #8
  br label %dom_create_attribute.exit

58:                                               ; preds = %52
  %59 = call ptr @xmlSetProp(ptr noundef %41, ptr noundef %53, ptr noundef %54) #8
  br label %dom_create_attribute.exit

dom_create_attribute.exit:                        ; preds = %56, %58
  %.0.i = phi ptr [ %57, %56 ], [ %59, %58 ]
  %.not21 = icmp eq ptr %.0.i, null
  br i1 %.not21, label %60, label %63

60:                                               ; preds = %dom_create_attribute.exit
  call void (i32, ptr, ...) @zend_argument_value_error(i32 noundef 1, ptr noundef nonnull @.str.9) #8
  %61 = load ptr, ptr getelementptr inbounds (%struct._zend_executor_globals, ptr @executor_globals, i64 0, i32 50), align 8
  %62 = icmp ne ptr %61, null
  call void @llvm.assume(i1 %62)
  br label %71

63:                                               ; preds = %dom_create_attribute.exit
  %64 = getelementptr inbounds i8, ptr %.0.i, i64 8
  %65 = load i32, ptr %64, align 8
  %66 = icmp eq i32 %65, 18
  br i1 %66, label %67, label %69

67:                                               ; preds = %63
  %68 = getelementptr inbounds i8, ptr %1, i64 8
  store i32 3, ptr %68, align 8
  br label %71

69:                                               ; preds = %63
  %70 = call zeroext i1 @php_dom_create_object(ptr noundef nonnull %.0.i, ptr noundef %1, ptr noundef nonnull %29) #8
  br label %71

71:                                               ; preds = %69, %67, %60, %50, %32, %24, %18, %12
  ret void
}